
RGB.elf:     file format elf32-avr

Sections:
Idx Name          Size      VMA       LMA       File off  Algn
  0 .text         00000884  00000000  00000000  00000094  2**1
                  CONTENTS, ALLOC, LOAD, READONLY, CODE
  1 .data         0000009c  00800060  00000884  00000918  2**0
                  CONTENTS, ALLOC, LOAD, DATA
  2 .bss          00000016  008000fc  008000fc  000009b4  2**0
                  ALLOC
  3 .comment      00000030  00000000  00000000  000009b4  2**0
                  CONTENTS, READONLY
  4 .note.gnu.avr.deviceinfo 0000003c  00000000  00000000  000009e4  2**2
                  CONTENTS, READONLY
  5 .debug_info   000004e6  00000000  00000000  00000a20  2**0
                  CONTENTS, READONLY, DEBUGGING
  6 .debug_abbrev 000004a3  00000000  00000000  00000f06  2**0
                  CONTENTS, READONLY, DEBUGGING
  7 .debug_line   00000116  00000000  00000000  000013a9  2**0
                  CONTENTS, READONLY, DEBUGGING
  8 .debug_str    00000196  00000000  00000000  000014bf  2**0
                  CONTENTS, READONLY, DEBUGGING

Disassembly of section .text:

00000000 <__vectors>:
   0:	0c 94 2a 00 	jmp	0x54	; 0x54 <__ctors_end>
   4:	0c 94 47 00 	jmp	0x8e	; 0x8e <__bad_interrupt>
   8:	0c 94 47 00 	jmp	0x8e	; 0x8e <__bad_interrupt>
   c:	0c 94 47 00 	jmp	0x8e	; 0x8e <__bad_interrupt>
  10:	0c 94 47 00 	jmp	0x8e	; 0x8e <__bad_interrupt>
  14:	0c 94 47 00 	jmp	0x8e	; 0x8e <__bad_interrupt>
  18:	0c 94 47 00 	jmp	0x8e	; 0x8e <__bad_interrupt>
  1c:	0c 94 47 00 	jmp	0x8e	; 0x8e <__bad_interrupt>
  20:	0c 94 47 00 	jmp	0x8e	; 0x8e <__bad_interrupt>
  24:	0c 94 47 00 	jmp	0x8e	; 0x8e <__bad_interrupt>
  28:	0c 94 47 00 	jmp	0x8e	; 0x8e <__bad_interrupt>
  2c:	0c 94 47 00 	jmp	0x8e	; 0x8e <__bad_interrupt>
  30:	0c 94 47 00 	jmp	0x8e	; 0x8e <__bad_interrupt>
  34:	0c 94 47 00 	jmp	0x8e	; 0x8e <__bad_interrupt>
  38:	0c 94 47 00 	jmp	0x8e	; 0x8e <__bad_interrupt>
  3c:	0c 94 47 00 	jmp	0x8e	; 0x8e <__bad_interrupt>
  40:	0c 94 47 00 	jmp	0x8e	; 0x8e <__bad_interrupt>
  44:	0c 94 47 00 	jmp	0x8e	; 0x8e <__bad_interrupt>
  48:	0c 94 47 00 	jmp	0x8e	; 0x8e <__bad_interrupt>
  4c:	0c 94 47 00 	jmp	0x8e	; 0x8e <__bad_interrupt>
  50:	0c 94 47 00 	jmp	0x8e	; 0x8e <__bad_interrupt>

00000054 <__ctors_end>:
  54:	11 24       	eor	r1, r1
  56:	1f be       	out	0x3f, r1	; 63
  58:	cf e5       	ldi	r28, 0x5F	; 95
  5a:	d8 e0       	ldi	r29, 0x08	; 8
  5c:	de bf       	out	0x3e, r29	; 62
  5e:	cd bf       	out	0x3d, r28	; 61

00000060 <__do_copy_data>:
  60:	10 e0       	ldi	r17, 0x00	; 0
  62:	a0 e6       	ldi	r26, 0x60	; 96
  64:	b0 e0       	ldi	r27, 0x00	; 0
  66:	e4 e8       	ldi	r30, 0x84	; 132
  68:	f8 e0       	ldi	r31, 0x08	; 8
  6a:	02 c0       	rjmp	.+4      	; 0x70 <__do_copy_data+0x10>
  6c:	05 90       	lpm	r0, Z+
  6e:	0d 92       	st	X+, r0
  70:	ac 3f       	cpi	r26, 0xFC	; 252
  72:	b1 07       	cpc	r27, r17
  74:	d9 f7       	brne	.-10     	; 0x6c <__do_copy_data+0xc>

00000076 <__do_clear_bss>:
  76:	21 e0       	ldi	r18, 0x01	; 1
  78:	ac ef       	ldi	r26, 0xFC	; 252
  7a:	b0 e0       	ldi	r27, 0x00	; 0
  7c:	01 c0       	rjmp	.+2      	; 0x80 <.do_clear_bss_start>

0000007e <.do_clear_bss_loop>:
  7e:	1d 92       	st	X+, r1

00000080 <.do_clear_bss_start>:
  80:	a2 31       	cpi	r26, 0x12	; 18
  82:	b2 07       	cpc	r27, r18
  84:	e1 f7       	brne	.-8      	; 0x7e <.do_clear_bss_loop>
  86:	0e 94 a8 01 	call	0x350	; 0x350 <main>
  8a:	0c 94 40 04 	jmp	0x880	; 0x880 <_exit>

0000008e <__bad_interrupt>:
  8e:	0c 94 00 00 	jmp	0	; 0x0 <__vectors>

00000092 <LCD_WriteCommand>:
  92:	cf 93       	push	r28
  94:	c8 2f       	mov	r28, r24
  96:	60 e0       	ldi	r22, 0x00	; 0
  98:	81 e0       	ldi	r24, 0x01	; 1
  9a:	0e 94 09 02 	call	0x412	; 0x412 <DIO_WritePin>
  9e:	6c 2f       	mov	r22, r28
  a0:	66 1f       	adc	r22, r22
  a2:	66 27       	eor	r22, r22
  a4:	66 1f       	adc	r22, r22
  a6:	86 e0       	ldi	r24, 0x06	; 6
  a8:	0e 94 09 02 	call	0x412	; 0x412 <DIO_WritePin>
  ac:	c6 fb       	bst	r28, 6
  ae:	66 27       	eor	r22, r22
  b0:	60 f9       	bld	r22, 0
  b2:	85 e0       	ldi	r24, 0x05	; 5
  b4:	0e 94 09 02 	call	0x412	; 0x412 <DIO_WritePin>
  b8:	c5 fb       	bst	r28, 5
  ba:	66 27       	eor	r22, r22
  bc:	60 f9       	bld	r22, 0
  be:	84 e0       	ldi	r24, 0x04	; 4
  c0:	0e 94 09 02 	call	0x412	; 0x412 <DIO_WritePin>
  c4:	c4 fb       	bst	r28, 4
  c6:	66 27       	eor	r22, r22
  c8:	60 f9       	bld	r22, 0
  ca:	83 e0       	ldi	r24, 0x03	; 3
  cc:	0e 94 09 02 	call	0x412	; 0x412 <DIO_WritePin>
  d0:	61 e0       	ldi	r22, 0x01	; 1
  d2:	82 e0       	ldi	r24, 0x02	; 2
  d4:	0e 94 09 02 	call	0x412	; 0x412 <DIO_WritePin>
  d8:	8f ec       	ldi	r24, 0xCF	; 207
  da:	97 e0       	ldi	r25, 0x07	; 7
  dc:	01 97       	sbiw	r24, 0x01	; 1
  de:	f1 f7       	brne	.-4      	; 0xdc <LCD_WriteCommand+0x4a>
  e0:	00 c0       	rjmp	.+0      	; 0xe2 <LCD_WriteCommand+0x50>
  e2:	00 00       	nop
  e4:	60 e0       	ldi	r22, 0x00	; 0
  e6:	82 e0       	ldi	r24, 0x02	; 2
  e8:	0e 94 09 02 	call	0x412	; 0x412 <DIO_WritePin>
  ec:	8f ec       	ldi	r24, 0xCF	; 207
  ee:	97 e0       	ldi	r25, 0x07	; 7
  f0:	01 97       	sbiw	r24, 0x01	; 1
  f2:	f1 f7       	brne	.-4      	; 0xf0 <LCD_WriteCommand+0x5e>
  f4:	00 c0       	rjmp	.+0      	; 0xf6 <LCD_WriteCommand+0x64>
  f6:	00 00       	nop
  f8:	c3 fb       	bst	r28, 3
  fa:	66 27       	eor	r22, r22
  fc:	60 f9       	bld	r22, 0
  fe:	86 e0       	ldi	r24, 0x06	; 6
 100:	0e 94 09 02 	call	0x412	; 0x412 <DIO_WritePin>
 104:	c2 fb       	bst	r28, 2
 106:	66 27       	eor	r22, r22
 108:	60 f9       	bld	r22, 0
 10a:	85 e0       	ldi	r24, 0x05	; 5
 10c:	0e 94 09 02 	call	0x412	; 0x412 <DIO_WritePin>
 110:	c1 fb       	bst	r28, 1
 112:	66 27       	eor	r22, r22
 114:	60 f9       	bld	r22, 0
 116:	84 e0       	ldi	r24, 0x04	; 4
 118:	0e 94 09 02 	call	0x412	; 0x412 <DIO_WritePin>
 11c:	6c 2f       	mov	r22, r28
 11e:	61 70       	andi	r22, 0x01	; 1
 120:	83 e0       	ldi	r24, 0x03	; 3
 122:	0e 94 09 02 	call	0x412	; 0x412 <DIO_WritePin>
 126:	61 e0       	ldi	r22, 0x01	; 1
 128:	82 e0       	ldi	r24, 0x02	; 2
 12a:	0e 94 09 02 	call	0x412	; 0x412 <DIO_WritePin>
 12e:	8f ec       	ldi	r24, 0xCF	; 207
 130:	97 e0       	ldi	r25, 0x07	; 7
 132:	01 97       	sbiw	r24, 0x01	; 1
 134:	f1 f7       	brne	.-4      	; 0x132 <LCD_WriteCommand+0xa0>
 136:	00 c0       	rjmp	.+0      	; 0x138 <LCD_WriteCommand+0xa6>
 138:	00 00       	nop
 13a:	60 e0       	ldi	r22, 0x00	; 0
 13c:	82 e0       	ldi	r24, 0x02	; 2
 13e:	0e 94 09 02 	call	0x412	; 0x412 <DIO_WritePin>
 142:	8f ec       	ldi	r24, 0xCF	; 207
 144:	97 e0       	ldi	r25, 0x07	; 7
 146:	01 97       	sbiw	r24, 0x01	; 1
 148:	f1 f7       	brne	.-4      	; 0x146 <LCD_WriteCommand+0xb4>
 14a:	00 c0       	rjmp	.+0      	; 0x14c <LCD_WriteCommand+0xba>
 14c:	00 00       	nop
 14e:	cf 91       	pop	r28
 150:	08 95       	ret

00000152 <LCD_WriteData>:
 152:	cf 93       	push	r28
 154:	c8 2f       	mov	r28, r24
 156:	61 e0       	ldi	r22, 0x01	; 1
 158:	81 e0       	ldi	r24, 0x01	; 1
 15a:	0e 94 09 02 	call	0x412	; 0x412 <DIO_WritePin>
 15e:	6c 2f       	mov	r22, r28
 160:	66 1f       	adc	r22, r22
 162:	66 27       	eor	r22, r22
 164:	66 1f       	adc	r22, r22
 166:	86 e0       	ldi	r24, 0x06	; 6
 168:	0e 94 09 02 	call	0x412	; 0x412 <DIO_WritePin>
 16c:	c6 fb       	bst	r28, 6
 16e:	66 27       	eor	r22, r22
 170:	60 f9       	bld	r22, 0
 172:	85 e0       	ldi	r24, 0x05	; 5
 174:	0e 94 09 02 	call	0x412	; 0x412 <DIO_WritePin>
 178:	c5 fb       	bst	r28, 5
 17a:	66 27       	eor	r22, r22
 17c:	60 f9       	bld	r22, 0
 17e:	84 e0       	ldi	r24, 0x04	; 4
 180:	0e 94 09 02 	call	0x412	; 0x412 <DIO_WritePin>
 184:	c4 fb       	bst	r28, 4
 186:	66 27       	eor	r22, r22
 188:	60 f9       	bld	r22, 0
 18a:	83 e0       	ldi	r24, 0x03	; 3
 18c:	0e 94 09 02 	call	0x412	; 0x412 <DIO_WritePin>
 190:	61 e0       	ldi	r22, 0x01	; 1
 192:	82 e0       	ldi	r24, 0x02	; 2
 194:	0e 94 09 02 	call	0x412	; 0x412 <DIO_WritePin>
 198:	8f ec       	ldi	r24, 0xCF	; 207
 19a:	97 e0       	ldi	r25, 0x07	; 7
 19c:	01 97       	sbiw	r24, 0x01	; 1
 19e:	f1 f7       	brne	.-4      	; 0x19c <LCD_WriteData+0x4a>
 1a0:	00 c0       	rjmp	.+0      	; 0x1a2 <LCD_WriteData+0x50>
 1a2:	00 00       	nop
 1a4:	60 e0       	ldi	r22, 0x00	; 0
 1a6:	82 e0       	ldi	r24, 0x02	; 2
 1a8:	0e 94 09 02 	call	0x412	; 0x412 <DIO_WritePin>
 1ac:	8f ec       	ldi	r24, 0xCF	; 207
 1ae:	97 e0       	ldi	r25, 0x07	; 7
 1b0:	01 97       	sbiw	r24, 0x01	; 1
 1b2:	f1 f7       	brne	.-4      	; 0x1b0 <LCD_WriteData+0x5e>
 1b4:	00 c0       	rjmp	.+0      	; 0x1b6 <LCD_WriteData+0x64>
 1b6:	00 00       	nop
 1b8:	c3 fb       	bst	r28, 3
 1ba:	66 27       	eor	r22, r22
 1bc:	60 f9       	bld	r22, 0
 1be:	86 e0       	ldi	r24, 0x06	; 6
 1c0:	0e 94 09 02 	call	0x412	; 0x412 <DIO_WritePin>
 1c4:	c2 fb       	bst	r28, 2
 1c6:	66 27       	eor	r22, r22
 1c8:	60 f9       	bld	r22, 0
 1ca:	85 e0       	ldi	r24, 0x05	; 5
 1cc:	0e 94 09 02 	call	0x412	; 0x412 <DIO_WritePin>
 1d0:	c1 fb       	bst	r28, 1
 1d2:	66 27       	eor	r22, r22
 1d4:	60 f9       	bld	r22, 0
 1d6:	84 e0       	ldi	r24, 0x04	; 4
 1d8:	0e 94 09 02 	call	0x412	; 0x412 <DIO_WritePin>
 1dc:	6c 2f       	mov	r22, r28
 1de:	61 70       	andi	r22, 0x01	; 1
 1e0:	83 e0       	ldi	r24, 0x03	; 3
 1e2:	0e 94 09 02 	call	0x412	; 0x412 <DIO_WritePin>
 1e6:	61 e0       	ldi	r22, 0x01	; 1
 1e8:	82 e0       	ldi	r24, 0x02	; 2
 1ea:	0e 94 09 02 	call	0x412	; 0x412 <DIO_WritePin>
 1ee:	8f ec       	ldi	r24, 0xCF	; 207
 1f0:	97 e0       	ldi	r25, 0x07	; 7
 1f2:	01 97       	sbiw	r24, 0x01	; 1
 1f4:	f1 f7       	brne	.-4      	; 0x1f2 <LCD_WriteData+0xa0>
 1f6:	00 c0       	rjmp	.+0      	; 0x1f8 <LCD_WriteData+0xa6>
 1f8:	00 00       	nop
 1fa:	60 e0       	ldi	r22, 0x00	; 0
 1fc:	82 e0       	ldi	r24, 0x02	; 2
 1fe:	0e 94 09 02 	call	0x412	; 0x412 <DIO_WritePin>
 202:	8f ec       	ldi	r24, 0xCF	; 207
 204:	97 e0       	ldi	r25, 0x07	; 7
 206:	01 97       	sbiw	r24, 0x01	; 1
 208:	f1 f7       	brne	.-4      	; 0x206 <LCD_WriteData+0xb4>
 20a:	00 c0       	rjmp	.+0      	; 0x20c <LCD_WriteData+0xba>
 20c:	00 00       	nop
 20e:	cf 91       	pop	r28
 210:	08 95       	ret

00000212 <LCD_Init>:
 212:	2f e7       	ldi	r18, 0x7F	; 127
 214:	88 e3       	ldi	r24, 0x38	; 56
 216:	91 e0       	ldi	r25, 0x01	; 1
 218:	21 50       	subi	r18, 0x01	; 1
 21a:	80 40       	sbci	r24, 0x00	; 0
 21c:	90 40       	sbci	r25, 0x00	; 0
 21e:	e1 f7       	brne	.-8      	; 0x218 <LCD_Init+0x6>
 220:	00 c0       	rjmp	.+0      	; 0x222 <LCD_Init+0x10>
 222:	00 00       	nop
 224:	82 e0       	ldi	r24, 0x02	; 2
 226:	0e 94 49 00 	call	0x92	; 0x92 <LCD_WriteCommand>
 22a:	88 e2       	ldi	r24, 0x28	; 40
 22c:	0e 94 49 00 	call	0x92	; 0x92 <LCD_WriteCommand>
 230:	8c e0       	ldi	r24, 0x0C	; 12
 232:	0e 94 49 00 	call	0x92	; 0x92 <LCD_WriteCommand>
 236:	81 e0       	ldi	r24, 0x01	; 1
 238:	0e 94 49 00 	call	0x92	; 0x92 <LCD_WriteCommand>
 23c:	8f ec       	ldi	r24, 0xCF	; 207
 23e:	97 e0       	ldi	r25, 0x07	; 7
 240:	01 97       	sbiw	r24, 0x01	; 1
 242:	f1 f7       	brne	.-4      	; 0x240 <LCD_Init+0x2e>
 244:	00 c0       	rjmp	.+0      	; 0x246 <LCD_Init+0x34>
 246:	00 00       	nop
 248:	86 e0       	ldi	r24, 0x06	; 6
 24a:	0c 94 49 00 	jmp	0x92	; 0x92 <LCD_WriteCommand>

0000024e <LCD_WriteString>:
 24e:	0f 93       	push	r16
 250:	1f 93       	push	r17
 252:	cf 93       	push	r28
 254:	8c 01       	movw	r16, r24
 256:	c0 e0       	ldi	r28, 0x00	; 0
 258:	f8 01       	movw	r30, r16
 25a:	ec 0f       	add	r30, r28
 25c:	f1 1d       	adc	r31, r1
 25e:	80 81       	ld	r24, Z
 260:	88 23       	and	r24, r24
 262:	21 f0       	breq	.+8      	; 0x26c <LCD_WriteString+0x1e>
 264:	0e 94 a9 00 	call	0x152	; 0x152 <LCD_WriteData>
 268:	cf 5f       	subi	r28, 0xFF	; 255
 26a:	f6 cf       	rjmp	.-20     	; 0x258 <LCD_WriteString+0xa>
 26c:	cf 91       	pop	r28
 26e:	1f 91       	pop	r17
 270:	0f 91       	pop	r16
 272:	08 95       	ret

00000274 <LCD_GoTo>:
 274:	81 11       	cpse	r24, r1
 276:	03 c0       	rjmp	.+6      	; 0x27e <LCD_GoTo+0xa>
 278:	86 2f       	mov	r24, r22
 27a:	80 68       	ori	r24, 0x80	; 128
 27c:	04 c0       	rjmp	.+8      	; 0x286 <LCD_GoTo+0x12>
 27e:	81 30       	cpi	r24, 0x01	; 1
 280:	21 f4       	brne	.+8      	; 0x28a <LCD_GoTo+0x16>
 282:	80 ec       	ldi	r24, 0xC0	; 192
 284:	86 0f       	add	r24, r22
 286:	0c 94 49 00 	jmp	0x92	; 0x92 <LCD_WriteCommand>
 28a:	08 95       	ret

0000028c <LCD_Clear>:
 28c:	81 e0       	ldi	r24, 0x01	; 1
 28e:	0c 94 49 00 	jmp	0x92	; 0x92 <LCD_WriteCommand>

00000292 <RGB_init>:
 292:	62 e0       	ldi	r22, 0x02	; 2
 294:	83 e0       	ldi	r24, 0x03	; 3
 296:	0e 94 68 03 	call	0x6d0	; 0x6d0 <TIMER0_Init>
 29a:	82 e0       	ldi	r24, 0x02	; 2
 29c:	0e 94 88 03 	call	0x710	; 0x710 <TIMER0_OC0Mode>
 2a0:	62 e0       	ldi	r22, 0x02	; 2
 2a2:	83 e0       	ldi	r24, 0x03	; 3
 2a4:	0e 94 a3 03 	call	0x746	; 0x746 <Timer1_Init>
 2a8:	82 e0       	ldi	r24, 0x02	; 2
 2aa:	0e 94 fa 03 	call	0x7f4	; 0x7f4 <Timer1_OCRB1Mode>
 2ae:	82 e0       	ldi	r24, 0x02	; 2
 2b0:	0e 94 df 03 	call	0x7be	; 0x7be <Timer1_OCRA1Mode>
 2b4:	8f ef       	ldi	r24, 0xFF	; 255
 2b6:	90 e0       	ldi	r25, 0x00	; 0
 2b8:	97 bd       	out	0x27, r25	; 39
 2ba:	86 bd       	out	0x26, r24	; 38
 2bc:	08 95       	ret

000002be <Set_Color>:
 2be:	90 e0       	ldi	r25, 0x00	; 0
 2c0:	fc 01       	movw	r30, r24
 2c2:	ee 0f       	add	r30, r30
 2c4:	ff 1f       	adc	r31, r31
 2c6:	8e 0f       	add	r24, r30
 2c8:	9f 1f       	adc	r25, r31
 2ca:	fc 01       	movw	r30, r24
 2cc:	ee 58       	subi	r30, 0x8E	; 142
 2ce:	ff 4f       	sbci	r31, 0xFF	; 255
 2d0:	80 81       	ld	r24, Z
 2d2:	90 e0       	ldi	r25, 0x00	; 0
 2d4:	9b bd       	out	0x2b, r25	; 43
 2d6:	8a bd       	out	0x2a, r24	; 42
 2d8:	81 81       	ldd	r24, Z+1	; 0x01
 2da:	90 e0       	ldi	r25, 0x00	; 0
 2dc:	99 bd       	out	0x29, r25	; 41
 2de:	88 bd       	out	0x28, r24	; 40
 2e0:	82 81       	ldd	r24, Z+2	; 0x02
 2e2:	8c bf       	out	0x3c, r24	; 60
 2e4:	08 95       	ret

000002e6 <String_Compare>:
 2e6:	1f 93       	push	r17
 2e8:	cf 93       	push	r28
 2ea:	df 93       	push	r29
 2ec:	dc 01       	movw	r26, r24
 2ee:	20 e0       	ldi	r18, 0x00	; 0
 2f0:	30 e0       	ldi	r19, 0x00	; 0
 2f2:	80 e0       	ldi	r24, 0x00	; 0
 2f4:	90 e0       	ldi	r25, 0x00	; 0
 2f6:	43 2f       	mov	r20, r19
 2f8:	50 e0       	ldi	r21, 0x00	; 0
 2fa:	fd 01       	movw	r30, r26
 2fc:	e4 0f       	add	r30, r20
 2fe:	f5 1f       	adc	r31, r21
 300:	10 81       	ld	r17, Z
 302:	11 23       	and	r17, r17
 304:	61 f0       	breq	.+24     	; 0x31e <String_Compare+0x38>
 306:	eb 01       	movw	r28, r22
 308:	e8 81       	ld	r30, Y
 30a:	f9 81       	ldd	r31, Y+1	; 0x01
 30c:	e4 0f       	add	r30, r20
 30e:	f5 1f       	adc	r31, r21
 310:	80 81       	ld	r24, Z
 312:	18 13       	cpse	r17, r24
 314:	12 c0       	rjmp	.+36     	; 0x33a <String_Compare+0x54>
 316:	3f 5f       	subi	r19, 0xFF	; 255
 318:	81 e0       	ldi	r24, 0x01	; 1
 31a:	90 e0       	ldi	r25, 0x00	; 0
 31c:	ec cf       	rjmp	.-40     	; 0x2f6 <String_Compare+0x10>
 31e:	eb 01       	movw	r28, r22
 320:	e8 81       	ld	r30, Y
 322:	f9 81       	ldd	r31, Y+1	; 0x01
 324:	e4 0f       	add	r30, r20
 326:	f5 1f       	adc	r31, r21
 328:	e0 81       	ld	r30, Z
 32a:	e1 11       	cpse	r30, r1
 32c:	ec cf       	rjmp	.-40     	; 0x306 <String_Compare+0x20>
 32e:	81 30       	cpi	r24, 0x01	; 1
 330:	91 05       	cpc	r25, r1
 332:	19 f4       	brne	.+6      	; 0x33a <String_Compare+0x54>
 334:	20 93 fd 00 	sts	0x00FD, r18	; 0x8000fd <index>
 338:	07 c0       	rjmp	.+14     	; 0x348 <String_Compare+0x62>
 33a:	2f 5f       	subi	r18, 0xFF	; 255
 33c:	6e 5f       	subi	r22, 0xFE	; 254
 33e:	7f 4f       	sbci	r23, 0xFF	; 255
 340:	29 30       	cpi	r18, 0x09	; 9
 342:	b1 f6       	brne	.-84     	; 0x2f0 <String_Compare+0xa>
 344:	80 e0       	ldi	r24, 0x00	; 0
 346:	90 e0       	ldi	r25, 0x00	; 0
 348:	df 91       	pop	r29
 34a:	cf 91       	pop	r28
 34c:	1f 91       	pop	r17
 34e:	08 95       	ret

00000350 <main>:
 350:	0e 94 8a 02 	call	0x514	; 0x514 <DIO_Init>
 354:	0e 94 09 01 	call	0x212	; 0x212 <LCD_Init>
 358:	0e 94 49 01 	call	0x292	; 0x292 <RGB_init>
 35c:	0e 94 15 04 	call	0x82a	; 0x82a <UART_Init>
 360:	62 e0       	ldi	r22, 0x02	; 2
 362:	80 e0       	ldi	r24, 0x00	; 0
 364:	0e 94 3a 01 	call	0x274	; 0x274 <LCD_GoTo>
 368:	8d e8       	ldi	r24, 0x8D	; 141
 36a:	90 e0       	ldi	r25, 0x00	; 0
 36c:	0e 94 27 01 	call	0x24e	; 0x24e <LCD_WriteString>
 370:	8e ef       	ldi	r24, 0xFE	; 254
 372:	90 e0       	ldi	r25, 0x00	; 0
 374:	0e 94 1f 04 	call	0x83e	; 0x83e <UART_RecieveString>
 378:	0e 94 1b 04 	call	0x836	; 0x836 <UART_Receive>
 37c:	80 93 fc 00 	sts	0x00FC, r24	; 0x8000fc <__data_end>
 380:	66 e0       	ldi	r22, 0x06	; 6
 382:	81 e0       	ldi	r24, 0x01	; 1
 384:	0e 94 3a 01 	call	0x274	; 0x274 <LCD_GoTo>
 388:	8e ef       	ldi	r24, 0xFE	; 254
 38a:	90 e0       	ldi	r25, 0x00	; 0
 38c:	0e 94 27 01 	call	0x24e	; 0x24e <LCD_WriteString>
 390:	8a e9       	ldi	r24, 0x9A	; 154
 392:	90 e0       	ldi	r25, 0x00	; 0
 394:	0e 94 27 01 	call	0x24e	; 0x24e <LCD_WriteString>
 398:	60 e6       	ldi	r22, 0x60	; 96
 39a:	70 e0       	ldi	r23, 0x00	; 0
 39c:	8e ef       	ldi	r24, 0xFE	; 254
 39e:	90 e0       	ldi	r25, 0x00	; 0
 3a0:	0e 94 73 01 	call	0x2e6	; 0x2e6 <String_Compare>
 3a4:	89 2b       	or	r24, r25
 3a6:	81 f0       	breq	.+32     	; 0x3c8 <main+0x78>
 3a8:	80 91 fd 00 	lds	r24, 0x00FD	; 0x8000fd <index>
 3ac:	90 e0       	ldi	r25, 0x00	; 0
 3ae:	0e 94 5f 01 	call	0x2be	; 0x2be <Set_Color>
 3b2:	80 e0       	ldi	r24, 0x00	; 0
 3b4:	e8 2f       	mov	r30, r24
 3b6:	f0 e0       	ldi	r31, 0x00	; 0
 3b8:	e2 50       	subi	r30, 0x02	; 2
 3ba:	ff 4f       	sbci	r31, 0xFF	; 255
 3bc:	90 81       	ld	r25, Z
 3be:	99 23       	and	r25, r25
 3c0:	79 f2       	breq	.-98     	; 0x360 <main+0x10>
 3c2:	10 82       	st	Z, r1
 3c4:	8f 5f       	subi	r24, 0xFF	; 255
 3c6:	f6 cf       	rjmp	.-20     	; 0x3b4 <main+0x64>
 3c8:	0e 94 46 01 	call	0x28c	; 0x28c <LCD_Clear>
 3cc:	60 e0       	ldi	r22, 0x00	; 0
 3ce:	80 e0       	ldi	r24, 0x00	; 0
 3d0:	0e 94 3a 01 	call	0x274	; 0x274 <LCD_GoTo>
 3d4:	81 ea       	ldi	r24, 0xA1	; 161
 3d6:	90 e0       	ldi	r25, 0x00	; 0
 3d8:	0e 94 27 01 	call	0x24e	; 0x24e <LCD_WriteString>
 3dc:	8a e9       	ldi	r24, 0x9A	; 154
 3de:	90 e0       	ldi	r25, 0x00	; 0
 3e0:	0e 94 27 01 	call	0x24e	; 0x24e <LCD_WriteString>
 3e4:	2f ef       	ldi	r18, 0xFF	; 255
 3e6:	89 e6       	ldi	r24, 0x69	; 105
 3e8:	98 e1       	ldi	r25, 0x18	; 24
 3ea:	21 50       	subi	r18, 0x01	; 1
 3ec:	80 40       	sbci	r24, 0x00	; 0
 3ee:	90 40       	sbci	r25, 0x00	; 0
 3f0:	e1 f7       	brne	.-8      	; 0x3ea <main+0x9a>
 3f2:	00 c0       	rjmp	.+0      	; 0x3f4 <main+0xa4>
 3f4:	00 00       	nop
 3f6:	0e 94 46 01 	call	0x28c	; 0x28c <LCD_Clear>
 3fa:	80 e0       	ldi	r24, 0x00	; 0
 3fc:	e8 2f       	mov	r30, r24
 3fe:	f0 e0       	ldi	r31, 0x00	; 0
 400:	e2 50       	subi	r30, 0x02	; 2
 402:	ff 4f       	sbci	r31, 0xFF	; 255
 404:	90 81       	ld	r25, Z
 406:	99 23       	and	r25, r25
 408:	09 f4       	brne	.+2      	; 0x40c <__EEPROM_REGION_LENGTH__+0xc>
 40a:	aa cf       	rjmp	.-172    	; 0x360 <main+0x10>
 40c:	10 82       	st	Z, r1
 40e:	8f 5f       	subi	r24, 0xFF	; 255
 410:	f5 cf       	rjmp	.-22     	; 0x3fc <main+0xac>

00000412 <DIO_WritePin>:
 412:	98 2f       	mov	r25, r24
 414:	96 95       	lsr	r25
 416:	96 95       	lsr	r25
 418:	96 95       	lsr	r25
 41a:	87 70       	andi	r24, 0x07	; 7
 41c:	61 30       	cpi	r22, 0x01	; 1
 41e:	c1 f5       	brne	.+112    	; 0x490 <DIO_WritePin+0x7e>
 420:	91 30       	cpi	r25, 0x01	; 1
 422:	91 f0       	breq	.+36     	; 0x448 <DIO_WritePin+0x36>
 424:	28 f0       	brcs	.+10     	; 0x430 <DIO_WritePin+0x1e>
 426:	92 30       	cpi	r25, 0x02	; 2
 428:	d9 f0       	breq	.+54     	; 0x460 <DIO_WritePin+0x4e>
 42a:	93 30       	cpi	r25, 0x03	; 3
 42c:	29 f1       	breq	.+74     	; 0x478 <DIO_WritePin+0x66>
 42e:	08 95       	ret
 430:	4b b3       	in	r20, 0x1b	; 27
 432:	21 e0       	ldi	r18, 0x01	; 1
 434:	30 e0       	ldi	r19, 0x00	; 0
 436:	b9 01       	movw	r22, r18
 438:	02 c0       	rjmp	.+4      	; 0x43e <DIO_WritePin+0x2c>
 43a:	66 0f       	add	r22, r22
 43c:	77 1f       	adc	r23, r23
 43e:	8a 95       	dec	r24
 440:	e2 f7       	brpl	.-8      	; 0x43a <DIO_WritePin+0x28>
 442:	cb 01       	movw	r24, r22
 444:	84 2b       	or	r24, r20
 446:	3a c0       	rjmp	.+116    	; 0x4bc <DIO_WritePin+0xaa>
 448:	48 b3       	in	r20, 0x18	; 24
 44a:	21 e0       	ldi	r18, 0x01	; 1
 44c:	30 e0       	ldi	r19, 0x00	; 0
 44e:	b9 01       	movw	r22, r18
 450:	02 c0       	rjmp	.+4      	; 0x456 <DIO_WritePin+0x44>
 452:	66 0f       	add	r22, r22
 454:	77 1f       	adc	r23, r23
 456:	8a 95       	dec	r24
 458:	e2 f7       	brpl	.-8      	; 0x452 <DIO_WritePin+0x40>
 45a:	cb 01       	movw	r24, r22
 45c:	84 2b       	or	r24, r20
 45e:	3c c0       	rjmp	.+120    	; 0x4d8 <DIO_WritePin+0xc6>
 460:	45 b3       	in	r20, 0x15	; 21
 462:	21 e0       	ldi	r18, 0x01	; 1
 464:	30 e0       	ldi	r19, 0x00	; 0
 466:	b9 01       	movw	r22, r18
 468:	02 c0       	rjmp	.+4      	; 0x46e <DIO_WritePin+0x5c>
 46a:	66 0f       	add	r22, r22
 46c:	77 1f       	adc	r23, r23
 46e:	8a 95       	dec	r24
 470:	e2 f7       	brpl	.-8      	; 0x46a <DIO_WritePin+0x58>
 472:	cb 01       	movw	r24, r22
 474:	84 2b       	or	r24, r20
 476:	3e c0       	rjmp	.+124    	; 0x4f4 <DIO_WritePin+0xe2>
 478:	42 b3       	in	r20, 0x12	; 18
 47a:	21 e0       	ldi	r18, 0x01	; 1
 47c:	30 e0       	ldi	r19, 0x00	; 0
 47e:	b9 01       	movw	r22, r18
 480:	02 c0       	rjmp	.+4      	; 0x486 <DIO_WritePin+0x74>
 482:	66 0f       	add	r22, r22
 484:	77 1f       	adc	r23, r23
 486:	8a 95       	dec	r24
 488:	e2 f7       	brpl	.-8      	; 0x482 <DIO_WritePin+0x70>
 48a:	cb 01       	movw	r24, r22
 48c:	84 2b       	or	r24, r20
 48e:	40 c0       	rjmp	.+128    	; 0x510 <DIO_WritePin+0xfe>
 490:	61 11       	cpse	r22, r1
 492:	3f c0       	rjmp	.+126    	; 0x512 <DIO_WritePin+0x100>
 494:	91 30       	cpi	r25, 0x01	; 1
 496:	a1 f0       	breq	.+40     	; 0x4c0 <DIO_WritePin+0xae>
 498:	28 f0       	brcs	.+10     	; 0x4a4 <DIO_WritePin+0x92>
 49a:	92 30       	cpi	r25, 0x02	; 2
 49c:	f9 f0       	breq	.+62     	; 0x4dc <DIO_WritePin+0xca>
 49e:	93 30       	cpi	r25, 0x03	; 3
 4a0:	59 f1       	breq	.+86     	; 0x4f8 <DIO_WritePin+0xe6>
 4a2:	08 95       	ret
 4a4:	4b b3       	in	r20, 0x1b	; 27
 4a6:	21 e0       	ldi	r18, 0x01	; 1
 4a8:	30 e0       	ldi	r19, 0x00	; 0
 4aa:	b9 01       	movw	r22, r18
 4ac:	02 c0       	rjmp	.+4      	; 0x4b2 <DIO_WritePin+0xa0>
 4ae:	66 0f       	add	r22, r22
 4b0:	77 1f       	adc	r23, r23
 4b2:	8a 95       	dec	r24
 4b4:	e2 f7       	brpl	.-8      	; 0x4ae <DIO_WritePin+0x9c>
 4b6:	cb 01       	movw	r24, r22
 4b8:	80 95       	com	r24
 4ba:	84 23       	and	r24, r20
 4bc:	8b bb       	out	0x1b, r24	; 27
 4be:	08 95       	ret
 4c0:	48 b3       	in	r20, 0x18	; 24
 4c2:	21 e0       	ldi	r18, 0x01	; 1
 4c4:	30 e0       	ldi	r19, 0x00	; 0
 4c6:	b9 01       	movw	r22, r18
 4c8:	02 c0       	rjmp	.+4      	; 0x4ce <DIO_WritePin+0xbc>
 4ca:	66 0f       	add	r22, r22
 4cc:	77 1f       	adc	r23, r23
 4ce:	8a 95       	dec	r24
 4d0:	e2 f7       	brpl	.-8      	; 0x4ca <DIO_WritePin+0xb8>
 4d2:	cb 01       	movw	r24, r22
 4d4:	80 95       	com	r24
 4d6:	84 23       	and	r24, r20
 4d8:	88 bb       	out	0x18, r24	; 24
 4da:	08 95       	ret
 4dc:	45 b3       	in	r20, 0x15	; 21
 4de:	21 e0       	ldi	r18, 0x01	; 1
 4e0:	30 e0       	ldi	r19, 0x00	; 0
 4e2:	b9 01       	movw	r22, r18
 4e4:	02 c0       	rjmp	.+4      	; 0x4ea <DIO_WritePin+0xd8>
 4e6:	66 0f       	add	r22, r22
 4e8:	77 1f       	adc	r23, r23
 4ea:	8a 95       	dec	r24
 4ec:	e2 f7       	brpl	.-8      	; 0x4e6 <DIO_WritePin+0xd4>
 4ee:	cb 01       	movw	r24, r22
 4f0:	80 95       	com	r24
 4f2:	84 23       	and	r24, r20
 4f4:	85 bb       	out	0x15, r24	; 21
 4f6:	08 95       	ret
 4f8:	42 b3       	in	r20, 0x12	; 18
 4fa:	21 e0       	ldi	r18, 0x01	; 1
 4fc:	30 e0       	ldi	r19, 0x00	; 0
 4fe:	b9 01       	movw	r22, r18
 500:	02 c0       	rjmp	.+4      	; 0x506 <DIO_WritePin+0xf4>
 502:	66 0f       	add	r22, r22
 504:	77 1f       	adc	r23, r23
 506:	8a 95       	dec	r24
 508:	e2 f7       	brpl	.-8      	; 0x502 <DIO_WritePin+0xf0>
 50a:	cb 01       	movw	r24, r22
 50c:	80 95       	com	r24
 50e:	84 23       	and	r24, r20
 510:	82 bb       	out	0x12, r24	; 18
 512:	08 95       	ret

00000514 <DIO_Init>:
 514:	eb ed       	ldi	r30, 0xDB	; 219
 516:	f0 e0       	ldi	r31, 0x00	; 0
 518:	40 e0       	ldi	r20, 0x00	; 0
 51a:	81 e0       	ldi	r24, 0x01	; 1
 51c:	90 e0       	ldi	r25, 0x00	; 0
 51e:	51 91       	ld	r21, Z+
 520:	34 2f       	mov	r19, r20
 522:	36 95       	lsr	r19
 524:	36 95       	lsr	r19
 526:	36 95       	lsr	r19
 528:	24 2f       	mov	r18, r20
 52a:	27 70       	andi	r18, 0x07	; 7
 52c:	51 30       	cpi	r21, 0x01	; 1
 52e:	09 f4       	brne	.+2      	; 0x532 <DIO_Init+0x1e>
 530:	43 c0       	rjmp	.+134    	; 0x5b8 <DIO_Init+0xa4>
 532:	20 f0       	brcs	.+8      	; 0x53c <DIO_Init+0x28>
 534:	52 30       	cpi	r21, 0x02	; 2
 536:	09 f4       	brne	.+2      	; 0x53a <DIO_Init+0x26>
 538:	82 c0       	rjmp	.+260    	; 0x63e <DIO_Init+0x12a>
 53a:	c5 c0       	rjmp	.+394    	; 0x6c6 <DIO_Init+0x1b2>
 53c:	32 30       	cpi	r19, 0x02	; 2
 53e:	01 f1       	breq	.+64     	; 0x580 <DIO_Init+0x6c>
 540:	33 30       	cpi	r19, 0x03	; 3
 542:	61 f1       	breq	.+88     	; 0x59c <DIO_Init+0x88>
 544:	31 30       	cpi	r19, 0x01	; 1
 546:	71 f0       	breq	.+28     	; 0x564 <DIO_Init+0x50>
 548:	5a b3       	in	r21, 0x1a	; 26
 54a:	bc 01       	movw	r22, r24
 54c:	02 c0       	rjmp	.+4      	; 0x552 <DIO_Init+0x3e>
 54e:	66 0f       	add	r22, r22
 550:	77 1f       	adc	r23, r23
 552:	2a 95       	dec	r18
 554:	e2 f7       	brpl	.-8      	; 0x54e <DIO_Init+0x3a>
 556:	9b 01       	movw	r18, r22
 558:	35 2f       	mov	r19, r21
 55a:	32 2b       	or	r19, r18
 55c:	3a bb       	out	0x1a, r19	; 26
 55e:	3b b3       	in	r19, 0x1b	; 27
 560:	20 95       	com	r18
 562:	3d c0       	rjmp	.+122    	; 0x5de <DIO_Init+0xca>
 564:	57 b3       	in	r21, 0x17	; 23
 566:	bc 01       	movw	r22, r24
 568:	02 c0       	rjmp	.+4      	; 0x56e <DIO_Init+0x5a>
 56a:	66 0f       	add	r22, r22
 56c:	77 1f       	adc	r23, r23
 56e:	2a 95       	dec	r18
 570:	e2 f7       	brpl	.-8      	; 0x56a <DIO_Init+0x56>
 572:	9b 01       	movw	r18, r22
 574:	35 2f       	mov	r19, r21
 576:	32 2b       	or	r19, r18
 578:	37 bb       	out	0x17, r19	; 23
 57a:	38 b3       	in	r19, 0x18	; 24
 57c:	20 95       	com	r18
 57e:	3e c0       	rjmp	.+124    	; 0x5fc <DIO_Init+0xe8>
 580:	54 b3       	in	r21, 0x14	; 20
 582:	bc 01       	movw	r22, r24
 584:	02 c0       	rjmp	.+4      	; 0x58a <DIO_Init+0x76>
 586:	66 0f       	add	r22, r22
 588:	77 1f       	adc	r23, r23
 58a:	2a 95       	dec	r18
 58c:	e2 f7       	brpl	.-8      	; 0x586 <DIO_Init+0x72>
 58e:	9b 01       	movw	r18, r22
 590:	35 2f       	mov	r19, r21
 592:	32 2b       	or	r19, r18
 594:	34 bb       	out	0x14, r19	; 20
 596:	35 b3       	in	r19, 0x15	; 21
 598:	20 95       	com	r18
 59a:	3f c0       	rjmp	.+126    	; 0x61a <DIO_Init+0x106>
 59c:	51 b3       	in	r21, 0x11	; 17
 59e:	bc 01       	movw	r22, r24
 5a0:	02 c0       	rjmp	.+4      	; 0x5a6 <DIO_Init+0x92>
 5a2:	66 0f       	add	r22, r22
 5a4:	77 1f       	adc	r23, r23
 5a6:	2a 95       	dec	r18
 5a8:	e2 f7       	brpl	.-8      	; 0x5a2 <DIO_Init+0x8e>
 5aa:	9b 01       	movw	r18, r22
 5ac:	35 2f       	mov	r19, r21
 5ae:	32 2b       	or	r19, r18
 5b0:	31 bb       	out	0x11, r19	; 17
 5b2:	32 b3       	in	r19, 0x12	; 18
 5b4:	20 95       	com	r18
 5b6:	41 c0       	rjmp	.+130    	; 0x63a <DIO_Init+0x126>
 5b8:	32 30       	cpi	r19, 0x02	; 2
 5ba:	11 f1       	breq	.+68     	; 0x600 <DIO_Init+0xec>
 5bc:	33 30       	cpi	r19, 0x03	; 3
 5be:	81 f1       	breq	.+96     	; 0x620 <DIO_Init+0x10c>
 5c0:	31 30       	cpi	r19, 0x01	; 1
 5c2:	79 f0       	breq	.+30     	; 0x5e2 <DIO_Init+0xce>
 5c4:	5a b3       	in	r21, 0x1a	; 26
 5c6:	bc 01       	movw	r22, r24
 5c8:	02 c0       	rjmp	.+4      	; 0x5ce <DIO_Init+0xba>
 5ca:	66 0f       	add	r22, r22
 5cc:	77 1f       	adc	r23, r23
 5ce:	2a 95       	dec	r18
 5d0:	e2 f7       	brpl	.-8      	; 0x5ca <DIO_Init+0xb6>
 5d2:	9b 01       	movw	r18, r22
 5d4:	20 95       	com	r18
 5d6:	35 2f       	mov	r19, r21
 5d8:	32 23       	and	r19, r18
 5da:	3a bb       	out	0x1a, r19	; 26
 5dc:	3b b3       	in	r19, 0x1b	; 27
 5de:	23 23       	and	r18, r19
 5e0:	42 c0       	rjmp	.+132    	; 0x666 <DIO_Init+0x152>
 5e2:	57 b3       	in	r21, 0x17	; 23
 5e4:	bc 01       	movw	r22, r24
 5e6:	02 c0       	rjmp	.+4      	; 0x5ec <DIO_Init+0xd8>
 5e8:	66 0f       	add	r22, r22
 5ea:	77 1f       	adc	r23, r23
 5ec:	2a 95       	dec	r18
 5ee:	e2 f7       	brpl	.-8      	; 0x5e8 <DIO_Init+0xd4>
 5f0:	9b 01       	movw	r18, r22
 5f2:	20 95       	com	r18
 5f4:	35 2f       	mov	r19, r21
 5f6:	32 23       	and	r19, r18
 5f8:	37 bb       	out	0x17, r19	; 23
 5fa:	38 b3       	in	r19, 0x18	; 24
 5fc:	23 23       	and	r18, r19
 5fe:	43 c0       	rjmp	.+134    	; 0x686 <DIO_Init+0x172>
 600:	54 b3       	in	r21, 0x14	; 20
 602:	bc 01       	movw	r22, r24
 604:	02 c0       	rjmp	.+4      	; 0x60a <DIO_Init+0xf6>
 606:	66 0f       	add	r22, r22
 608:	77 1f       	adc	r23, r23
 60a:	2a 95       	dec	r18
 60c:	e2 f7       	brpl	.-8      	; 0x606 <DIO_Init+0xf2>
 60e:	9b 01       	movw	r18, r22
 610:	20 95       	com	r18
 612:	35 2f       	mov	r19, r21
 614:	32 23       	and	r19, r18
 616:	34 bb       	out	0x14, r19	; 20
 618:	35 b3       	in	r19, 0x15	; 21
 61a:	23 23       	and	r18, r19
 61c:	25 bb       	out	0x15, r18	; 21
 61e:	53 c0       	rjmp	.+166    	; 0x6c6 <DIO_Init+0x1b2>
 620:	51 b3       	in	r21, 0x11	; 17
 622:	bc 01       	movw	r22, r24
 624:	02 c0       	rjmp	.+4      	; 0x62a <DIO_Init+0x116>
 626:	66 0f       	add	r22, r22
 628:	77 1f       	adc	r23, r23
 62a:	2a 95       	dec	r18
 62c:	e2 f7       	brpl	.-8      	; 0x626 <DIO_Init+0x112>
 62e:	9b 01       	movw	r18, r22
 630:	20 95       	com	r18
 632:	35 2f       	mov	r19, r21
 634:	32 23       	and	r19, r18
 636:	31 bb       	out	0x11, r19	; 17
 638:	32 b3       	in	r19, 0x12	; 18
 63a:	23 23       	and	r18, r19
 63c:	43 c0       	rjmp	.+134    	; 0x6c4 <DIO_Init+0x1b0>
 63e:	32 30       	cpi	r19, 0x02	; 2
 640:	21 f1       	breq	.+72     	; 0x68a <DIO_Init+0x176>
 642:	33 30       	cpi	r19, 0x03	; 3
 644:	89 f1       	breq	.+98     	; 0x6a8 <DIO_Init+0x194>
 646:	31 30       	cpi	r19, 0x01	; 1
 648:	81 f0       	breq	.+32     	; 0x66a <DIO_Init+0x156>
 64a:	5a b3       	in	r21, 0x1a	; 26
 64c:	bc 01       	movw	r22, r24
 64e:	02 c0       	rjmp	.+4      	; 0x654 <DIO_Init+0x140>
 650:	66 0f       	add	r22, r22
 652:	77 1f       	adc	r23, r23
 654:	2a 95       	dec	r18
 656:	e2 f7       	brpl	.-8      	; 0x650 <DIO_Init+0x13c>
 658:	9b 01       	movw	r18, r22
 65a:	36 2f       	mov	r19, r22
 65c:	30 95       	com	r19
 65e:	35 23       	and	r19, r21
 660:	3a bb       	out	0x1a, r19	; 26
 662:	3b b3       	in	r19, 0x1b	; 27
 664:	23 2b       	or	r18, r19
 666:	2b bb       	out	0x1b, r18	; 27
 668:	2e c0       	rjmp	.+92     	; 0x6c6 <DIO_Init+0x1b2>
 66a:	57 b3       	in	r21, 0x17	; 23
 66c:	bc 01       	movw	r22, r24
 66e:	02 c0       	rjmp	.+4      	; 0x674 <DIO_Init+0x160>
 670:	66 0f       	add	r22, r22
 672:	77 1f       	adc	r23, r23
 674:	2a 95       	dec	r18
 676:	e2 f7       	brpl	.-8      	; 0x670 <DIO_Init+0x15c>
 678:	9b 01       	movw	r18, r22
 67a:	36 2f       	mov	r19, r22
 67c:	30 95       	com	r19
 67e:	35 23       	and	r19, r21
 680:	37 bb       	out	0x17, r19	; 23
 682:	38 b3       	in	r19, 0x18	; 24
 684:	23 2b       	or	r18, r19
 686:	28 bb       	out	0x18, r18	; 24
 688:	1e c0       	rjmp	.+60     	; 0x6c6 <DIO_Init+0x1b2>
 68a:	54 b3       	in	r21, 0x14	; 20
 68c:	bc 01       	movw	r22, r24
 68e:	02 c0       	rjmp	.+4      	; 0x694 <DIO_Init+0x180>
 690:	66 0f       	add	r22, r22
 692:	77 1f       	adc	r23, r23
 694:	2a 95       	dec	r18
 696:	e2 f7       	brpl	.-8      	; 0x690 <DIO_Init+0x17c>
 698:	9b 01       	movw	r18, r22
 69a:	36 2f       	mov	r19, r22
 69c:	30 95       	com	r19
 69e:	35 23       	and	r19, r21
 6a0:	34 bb       	out	0x14, r19	; 20
 6a2:	35 b3       	in	r19, 0x15	; 21
 6a4:	23 2b       	or	r18, r19
 6a6:	ba cf       	rjmp	.-140    	; 0x61c <DIO_Init+0x108>
 6a8:	51 b3       	in	r21, 0x11	; 17
 6aa:	bc 01       	movw	r22, r24
 6ac:	02 c0       	rjmp	.+4      	; 0x6b2 <DIO_Init+0x19e>
 6ae:	66 0f       	add	r22, r22
 6b0:	77 1f       	adc	r23, r23
 6b2:	2a 95       	dec	r18
 6b4:	e2 f7       	brpl	.-8      	; 0x6ae <DIO_Init+0x19a>
 6b6:	9b 01       	movw	r18, r22
 6b8:	36 2f       	mov	r19, r22
 6ba:	30 95       	com	r19
 6bc:	35 23       	and	r19, r21
 6be:	31 bb       	out	0x11, r19	; 17
 6c0:	32 b3       	in	r19, 0x12	; 18
 6c2:	23 2b       	or	r18, r19
 6c4:	22 bb       	out	0x12, r18	; 18
 6c6:	4f 5f       	subi	r20, 0xFF	; 255
 6c8:	40 32       	cpi	r20, 0x20	; 32
 6ca:	09 f0       	breq	.+2      	; 0x6ce <DIO_Init+0x1ba>
 6cc:	28 cf       	rjmp	.-432    	; 0x51e <DIO_Init+0xa>
 6ce:	08 95       	ret

000006d0 <TIMER0_Init>:
 6d0:	81 30       	cpi	r24, 0x01	; 1
 6d2:	59 f0       	breq	.+22     	; 0x6ea <TIMER0_Init+0x1a>
 6d4:	38 f0       	brcs	.+14     	; 0x6e4 <TIMER0_Init+0x14>
 6d6:	82 30       	cpi	r24, 0x02	; 2
 6d8:	71 f0       	breq	.+28     	; 0x6f6 <TIMER0_Init+0x26>
 6da:	83 30       	cpi	r24, 0x03	; 3
 6dc:	91 f4       	brne	.+36     	; 0x702 <TIMER0_Init+0x32>
 6de:	83 b7       	in	r24, 0x33	; 51
 6e0:	80 64       	ori	r24, 0x40	; 64
 6e2:	0b c0       	rjmp	.+22     	; 0x6fa <TIMER0_Init+0x2a>
 6e4:	83 b7       	in	r24, 0x33	; 51
 6e6:	8f 7b       	andi	r24, 0xBF	; 191
 6e8:	02 c0       	rjmp	.+4      	; 0x6ee <TIMER0_Init+0x1e>
 6ea:	83 b7       	in	r24, 0x33	; 51
 6ec:	80 64       	ori	r24, 0x40	; 64
 6ee:	83 bf       	out	0x33, r24	; 51
 6f0:	83 b7       	in	r24, 0x33	; 51
 6f2:	87 7f       	andi	r24, 0xF7	; 247
 6f4:	05 c0       	rjmp	.+10     	; 0x700 <TIMER0_Init+0x30>
 6f6:	83 b7       	in	r24, 0x33	; 51
 6f8:	8f 7b       	andi	r24, 0xBF	; 191
 6fa:	83 bf       	out	0x33, r24	; 51
 6fc:	83 b7       	in	r24, 0x33	; 51
 6fe:	88 60       	ori	r24, 0x08	; 8
 700:	83 bf       	out	0x33, r24	; 51
 702:	83 b7       	in	r24, 0x33	; 51
 704:	88 7f       	andi	r24, 0xF8	; 248
 706:	83 bf       	out	0x33, r24	; 51
 708:	83 b7       	in	r24, 0x33	; 51
 70a:	68 2b       	or	r22, r24
 70c:	63 bf       	out	0x33, r22	; 51
 70e:	08 95       	ret

00000710 <TIMER0_OC0Mode>:
 710:	81 30       	cpi	r24, 0x01	; 1
 712:	49 f0       	breq	.+18     	; 0x726 <TIMER0_OC0Mode+0x16>
 714:	28 f0       	brcs	.+10     	; 0x720 <TIMER0_OC0Mode+0x10>
 716:	82 30       	cpi	r24, 0x02	; 2
 718:	61 f0       	breq	.+24     	; 0x732 <TIMER0_OC0Mode+0x22>
 71a:	83 30       	cpi	r24, 0x03	; 3
 71c:	69 f0       	breq	.+26     	; 0x738 <TIMER0_OC0Mode+0x28>
 71e:	08 95       	ret
 720:	83 b7       	in	r24, 0x33	; 51
 722:	8f 7e       	andi	r24, 0xEF	; 239
 724:	02 c0       	rjmp	.+4      	; 0x72a <TIMER0_OC0Mode+0x1a>
 726:	83 b7       	in	r24, 0x33	; 51
 728:	80 61       	ori	r24, 0x10	; 16
 72a:	83 bf       	out	0x33, r24	; 51
 72c:	83 b7       	in	r24, 0x33	; 51
 72e:	8f 7d       	andi	r24, 0xDF	; 223
 730:	08 c0       	rjmp	.+16     	; 0x742 <TIMER0_OC0Mode+0x32>
 732:	83 b7       	in	r24, 0x33	; 51
 734:	8f 7e       	andi	r24, 0xEF	; 239
 736:	02 c0       	rjmp	.+4      	; 0x73c <TIMER0_OC0Mode+0x2c>
 738:	83 b7       	in	r24, 0x33	; 51
 73a:	80 61       	ori	r24, 0x10	; 16
 73c:	83 bf       	out	0x33, r24	; 51
 73e:	83 b7       	in	r24, 0x33	; 51
 740:	80 62       	ori	r24, 0x20	; 32
 742:	83 bf       	out	0x33, r24	; 51
 744:	08 95       	ret

00000746 <Timer1_Init>:
 746:	82 30       	cpi	r24, 0x02	; 2
 748:	d9 f0       	breq	.+54     	; 0x780 <Timer1_Init+0x3a>
 74a:	50 f4       	brcc	.+20     	; 0x760 <Timer1_Init+0x1a>
 74c:	88 23       	and	r24, r24
 74e:	79 f0       	breq	.+30     	; 0x76e <Timer1_Init+0x28>
 750:	81 30       	cpi	r24, 0x01	; 1
 752:	71 f5       	brne	.+92     	; 0x7b0 <Timer1_Init+0x6a>
 754:	8f b5       	in	r24, 0x2f	; 47
 756:	8e 7f       	andi	r24, 0xFE	; 254
 758:	8f bd       	out	0x2f, r24	; 47
 75a:	8f b5       	in	r24, 0x2f	; 47
 75c:	8d 7f       	andi	r24, 0xFD	; 253
 75e:	21 c0       	rjmp	.+66     	; 0x7a2 <Timer1_Init+0x5c>
 760:	83 30       	cpi	r24, 0x03	; 3
 762:	d1 f0       	breq	.+52     	; 0x798 <Timer1_Init+0x52>
 764:	84 30       	cpi	r24, 0x04	; 4
 766:	21 f5       	brne	.+72     	; 0x7b0 <Timer1_Init+0x6a>
 768:	8f b5       	in	r24, 0x2f	; 47
 76a:	81 60       	ori	r24, 0x01	; 1
 76c:	17 c0       	rjmp	.+46     	; 0x79c <Timer1_Init+0x56>
 76e:	8f b5       	in	r24, 0x2f	; 47
 770:	8e 7f       	andi	r24, 0xFE	; 254
 772:	8f bd       	out	0x2f, r24	; 47
 774:	8f b5       	in	r24, 0x2f	; 47
 776:	8d 7f       	andi	r24, 0xFD	; 253
 778:	8f bd       	out	0x2f, r24	; 47
 77a:	8e b5       	in	r24, 0x2e	; 46
 77c:	87 7f       	andi	r24, 0xF7	; 247
 77e:	08 c0       	rjmp	.+16     	; 0x790 <Timer1_Init+0x4a>
 780:	8f b5       	in	r24, 0x2f	; 47
 782:	8e 7f       	andi	r24, 0xFE	; 254
 784:	8f bd       	out	0x2f, r24	; 47
 786:	8f b5       	in	r24, 0x2f	; 47
 788:	8d 7f       	andi	r24, 0xFD	; 253
 78a:	8f bd       	out	0x2f, r24	; 47
 78c:	8e b5       	in	r24, 0x2e	; 46
 78e:	88 60       	ori	r24, 0x08	; 8
 790:	8e bd       	out	0x2e, r24	; 46
 792:	8e b5       	in	r24, 0x2e	; 46
 794:	8f 7e       	andi	r24, 0xEF	; 239
 796:	0b c0       	rjmp	.+22     	; 0x7ae <Timer1_Init+0x68>
 798:	8f b5       	in	r24, 0x2f	; 47
 79a:	8e 7f       	andi	r24, 0xFE	; 254
 79c:	8f bd       	out	0x2f, r24	; 47
 79e:	8f b5       	in	r24, 0x2f	; 47
 7a0:	82 60       	ori	r24, 0x02	; 2
 7a2:	8f bd       	out	0x2f, r24	; 47
 7a4:	8e b5       	in	r24, 0x2e	; 46
 7a6:	88 60       	ori	r24, 0x08	; 8
 7a8:	8e bd       	out	0x2e, r24	; 46
 7aa:	8e b5       	in	r24, 0x2e	; 46
 7ac:	80 61       	ori	r24, 0x10	; 16
 7ae:	8e bd       	out	0x2e, r24	; 46
 7b0:	8e b5       	in	r24, 0x2e	; 46
 7b2:	88 7f       	andi	r24, 0xF8	; 248
 7b4:	8e bd       	out	0x2e, r24	; 46
 7b6:	8e b5       	in	r24, 0x2e	; 46
 7b8:	68 2b       	or	r22, r24
 7ba:	6e bd       	out	0x2e, r22	; 46
 7bc:	08 95       	ret

000007be <Timer1_OCRA1Mode>:
 7be:	81 30       	cpi	r24, 0x01	; 1
 7c0:	49 f0       	breq	.+18     	; 0x7d4 <Timer1_OCRA1Mode+0x16>
 7c2:	28 f0       	brcs	.+10     	; 0x7ce <Timer1_OCRA1Mode+0x10>
 7c4:	82 30       	cpi	r24, 0x02	; 2
 7c6:	61 f0       	breq	.+24     	; 0x7e0 <Timer1_OCRA1Mode+0x22>
 7c8:	83 30       	cpi	r24, 0x03	; 3
 7ca:	69 f0       	breq	.+26     	; 0x7e6 <Timer1_OCRA1Mode+0x28>
 7cc:	08 95       	ret
 7ce:	8f b5       	in	r24, 0x2f	; 47
 7d0:	8f 7b       	andi	r24, 0xBF	; 191
 7d2:	02 c0       	rjmp	.+4      	; 0x7d8 <Timer1_OCRA1Mode+0x1a>
 7d4:	8f b5       	in	r24, 0x2f	; 47
 7d6:	80 64       	ori	r24, 0x40	; 64
 7d8:	8f bd       	out	0x2f, r24	; 47
 7da:	8f b5       	in	r24, 0x2f	; 47
 7dc:	8f 77       	andi	r24, 0x7F	; 127
 7de:	08 c0       	rjmp	.+16     	; 0x7f0 <Timer1_OCRA1Mode+0x32>
 7e0:	8f b5       	in	r24, 0x2f	; 47
 7e2:	8f 7b       	andi	r24, 0xBF	; 191
 7e4:	02 c0       	rjmp	.+4      	; 0x7ea <Timer1_OCRA1Mode+0x2c>
 7e6:	8f b5       	in	r24, 0x2f	; 47
 7e8:	80 64       	ori	r24, 0x40	; 64
 7ea:	8f bd       	out	0x2f, r24	; 47
 7ec:	8f b5       	in	r24, 0x2f	; 47
 7ee:	80 68       	ori	r24, 0x80	; 128
 7f0:	8f bd       	out	0x2f, r24	; 47
 7f2:	08 95       	ret

000007f4 <Timer1_OCRB1Mode>:
 7f4:	81 30       	cpi	r24, 0x01	; 1
 7f6:	49 f0       	breq	.+18     	; 0x80a <__DATA_REGION_LENGTH__+0xa>
 7f8:	28 f0       	brcs	.+10     	; 0x804 <__DATA_REGION_LENGTH__+0x4>
 7fa:	82 30       	cpi	r24, 0x02	; 2
 7fc:	61 f0       	breq	.+24     	; 0x816 <__DATA_REGION_LENGTH__+0x16>
 7fe:	83 30       	cpi	r24, 0x03	; 3
 800:	69 f0       	breq	.+26     	; 0x81c <__DATA_REGION_LENGTH__+0x1c>
 802:	08 95       	ret
 804:	8f b5       	in	r24, 0x2f	; 47
 806:	8f 7e       	andi	r24, 0xEF	; 239
 808:	02 c0       	rjmp	.+4      	; 0x80e <__DATA_REGION_LENGTH__+0xe>
 80a:	8f b5       	in	r24, 0x2f	; 47
 80c:	80 61       	ori	r24, 0x10	; 16
 80e:	8f bd       	out	0x2f, r24	; 47
 810:	8f b5       	in	r24, 0x2f	; 47
 812:	8f 7d       	andi	r24, 0xDF	; 223
 814:	08 c0       	rjmp	.+16     	; 0x826 <__DATA_REGION_LENGTH__+0x26>
 816:	8f b5       	in	r24, 0x2f	; 47
 818:	8f 7e       	andi	r24, 0xEF	; 239
 81a:	02 c0       	rjmp	.+4      	; 0x820 <__DATA_REGION_LENGTH__+0x20>
 81c:	8f b5       	in	r24, 0x2f	; 47
 81e:	80 61       	ori	r24, 0x10	; 16
 820:	8f bd       	out	0x2f, r24	; 47
 822:	8f b5       	in	r24, 0x2f	; 47
 824:	80 62       	ori	r24, 0x20	; 32
 826:	8f bd       	out	0x2f, r24	; 47
 828:	08 95       	ret

0000082a <UART_Init>:
 82a:	83 e3       	ldi	r24, 0x33	; 51
 82c:	89 b9       	out	0x09, r24	; 9
 82e:	59 98       	cbi	0x0b, 1	; 11
 830:	53 9a       	sbi	0x0a, 3	; 10
 832:	54 9a       	sbi	0x0a, 4	; 10
 834:	08 95       	ret

00000836 <UART_Receive>:
 836:	5f 9b       	sbis	0x0b, 7	; 11
 838:	fe cf       	rjmp	.-4      	; 0x836 <UART_Receive>
 83a:	8c b1       	in	r24, 0x0c	; 12
 83c:	08 95       	ret

0000083e <UART_RecieveString>:
 83e:	ef 92       	push	r14
 840:	ff 92       	push	r15
 842:	0f 93       	push	r16
 844:	1f 93       	push	r17
 846:	cf 93       	push	r28
 848:	8c 01       	movw	r16, r24
 84a:	0e 94 1b 04 	call	0x836	; 0x836 <UART_Receive>
 84e:	f8 01       	movw	r30, r16
 850:	80 83       	st	Z, r24
 852:	c0 e0       	ldi	r28, 0x00	; 0
 854:	f8 01       	movw	r30, r16
 856:	ec 0f       	add	r30, r28
 858:	f1 1d       	adc	r31, r1
 85a:	80 81       	ld	r24, Z
 85c:	8d 30       	cpi	r24, 0x0D	; 13
 85e:	49 f0       	breq	.+18     	; 0x872 <__stack+0x13>
 860:	cf 5f       	subi	r28, 0xFF	; 255
 862:	78 01       	movw	r14, r16
 864:	ec 0e       	add	r14, r28
 866:	f1 1c       	adc	r15, r1
 868:	0e 94 1b 04 	call	0x836	; 0x836 <UART_Receive>
 86c:	f7 01       	movw	r30, r14
 86e:	80 83       	st	Z, r24
 870:	f1 cf       	rjmp	.-30     	; 0x854 <UART_RecieveString+0x16>
 872:	10 82       	st	Z, r1
 874:	cf 91       	pop	r28
 876:	1f 91       	pop	r17
 878:	0f 91       	pop	r16
 87a:	ff 90       	pop	r15
 87c:	ef 90       	pop	r14
 87e:	08 95       	ret

00000880 <_exit>:
 880:	f8 94       	cli

00000882 <__stop_program>:
 882:	ff cf       	rjmp	.-2      	; 0x882 <__stop_program>
